target datalayout = "e-m:e-p270:32:32-p271:32:32-p272:64:64-i64:64-i128:128-f80:128-n8:16:32:64-S128"
target triple = "x86_64-pc-linux-gnu"

@_ZN3tbb6detail2r127get_default_concurrency_ptrE = global ptr @_ZN3tbb6detail2r1L29dummy_get_default_concurrencyEiii, align 8
@_ZZN3tbb6detail2r18governor19default_num_threadsEvE11num_threads = linkonce_odr global i32 0, comdat, align 4
@_ZGVZN3tbb6detail2r18governor19default_num_threadsEvE11num_threads = linkonce_odr global i64 0, comdat, align 8

; Function Attrs: mustprogress sspstrong uwtable
define linkonce_odr noundef i32 @_ZN3tbb6detail2r18governor19default_num_threadsEv() #1 comdat align 2 personality ptr @__gxx_personality_v0 {
  %1 = alloca ptr, align 8
  %2 = alloca i32, align 4
  %3 = load atomic i8, ptr @_ZGVZN3tbb6detail2r18governor19default_num_threadsEvE11num_threads acquire, align 8
  %4 = icmp eq i8 %3, 0
  br i1 %4, label %5, label %11, !prof !96

5:                                                ; preds = %0
  %6 = call i32 @__cxa_guard_acquire(ptr @_ZGVZN3tbb6detail2r18governor19default_num_threadsEvE11num_threads) #12
  %7 = icmp ne i32 %6, 0
  br i1 %7, label %8, label %11

8:                                                ; preds = %5
  %9 = invoke noundef i32 @_ZN3tbb6detail2r122AvailableHwConcurrencyEv()
          to label %10 unwind label %13

10:                                               ; preds = %8
  store i32 %9, ptr @_ZZN3tbb6detail2r18governor19default_num_threadsEvE11num_threads, align 4, !tbaa !3
  call void @__cxa_guard_release(ptr @_ZGVZN3tbb6detail2r18governor19default_num_threadsEvE11num_threads) #12
  br label %11

11:                                               ; preds = %10, %5, %0
  %12 = load i32, ptr @_ZZN3tbb6detail2r18governor19default_num_threadsEvE11num_threads, align 4, !tbaa !3
  ret i32 %12

13:                                               ; preds = %8
  %14 = landingpad { ptr, i32 }
          cleanup
  %15 = extractvalue { ptr, i32 } %14, 0
  store ptr %15, ptr %1, align 8
  %16 = extractvalue { ptr, i32 } %14, 1
  store i32 %16, ptr %2, align 4
  call void @__cxa_guard_abort(ptr @_ZGVZN3tbb6detail2r18governor19default_num_threadsEvE11num_threads) #12
  br label %17

17:                                               ; preds = %13
  %18 = load ptr, ptr %1, align 8
  %19 = load i32, ptr %2, align 4
  %20 = insertvalue { ptr, i32 } poison, ptr %18, 0
  %21 = insertvalue { ptr, i32 } %20, i32 %19, 1
  resume { ptr, i32 } %21
}

; Function Attrs: mustprogress sspstrong uwtable
define noundef i32 @_ZN3tbb6detail2r124numa_default_concurrencyEi(i32 noundef %0) #1 {
  %2 = alloca i32, align 4
  %3 = alloca i32, align 4
  %4 = alloca i32, align 4
  %5 = alloca i32, align 4
  store i32 %0, ptr %3, align 4, !tbaa !3
  %6 = load i32, ptr %3, align 4, !tbaa !3
  %7 = icmp sge i32 %6, 0
  br i1 %7, label %8, label %20

8:                                                ; preds = %1
  call void @_ZN3tbb6detail2r115system_topology10initializeEv()
  call void @llvm.lifetime.start.p0(i64 4, ptr %4) #12
  %9 = load ptr, ptr @_ZN3tbb6detail2r127get_default_concurrency_ptrE, align 8, !tbaa !12
  %10 = load i32, ptr %3, align 4, !tbaa !3
  %11 = call noundef i32 %9(i32 noundef %10, i32 noundef -1, i32 noundef -1)
  store i32 %11, ptr %4, align 4, !tbaa !3
  %12 = load i32, ptr %4, align 4, !tbaa !3
  %13 = icmp sgt i32 %12, 0
  br i1 %13, label %14, label %16

14:                                               ; preds = %8
  %15 = load i32, ptr %4, align 4, !tbaa !3
  store i32 %15, ptr %2, align 4
  store i32 1, ptr %5, align 4
  br label %17

16:                                               ; preds = %8
  store i32 0, ptr %5, align 4
  br label %17

17:                                               ; preds = %16, %14
  call void @llvm.lifetime.end.p0(i64 4, ptr %4) #12
  %18 = load i32, ptr %5, align 4
  switch i32 %18, label %24 [
    i32 0, label %19
    i32 1, label %22
  ]

19:                                               ; preds = %17
  br label %20

20:                                               ; preds = %19, %1
  %21 = call noundef i32 @_ZN3tbb6detail2r18governor19default_num_threadsEv()
  store i32 %21, ptr %2, align 4
  br label %22

22:                                               ; preds = %20, %17
  %23 = load i32, ptr %2, align 4
  ret i32 %23

24:                                               ; preds = %17
  unreachable
}