; Function Attrs: mustprogress sspstrong uwtable
define noundef i32 @_ZN3tbb6detail2r124numa_default_concurrencyEi(i32 noundef %0) local_unnamed_addr #1 personality ptr @__gxx_personality_v0 {
  %2 = icmp sgt i32 %0, -1
  br i1 %2, label %3, label %7

3:                                                ; preds = %1
  tail call void @_ZN3tbb6detail2r115system_topology10initializeEv()
  %4 = load ptr, ptr @_ZN3tbb6detail2r127get_default_concurrency_ptrE, align 8, !tbaa !98
  %5 = tail call noundef i32 %4(i32 noundef %0, i32 noundef -1, i32 noundef -1)
  %6 = icmp slt i32 %5, 1
  br i1 %6, label %7, label %18

7:                                                ; preds = %3, %1
  %8 = load atomic i8, ptr @_ZGVZN3tbb6detail2r18governor19default_num_threadsEvE11num_threads acquire, align 8
  %9 = icmp eq i8 %8, 0
  br i1 %9, label %10, label %_ZN3tbb6detail2r18governor19default_num_threadsEv.exit, !prof !101

10:                                               ; preds = %7
  %11 = tail call i32 @__cxa_guard_acquire(ptr nonnull @_ZGVZN3tbb6detail2r18governor19default_num_threadsEvE11num_threads) #8
  %.not.i = icmp eq i32 %11, 0
  br i1 %.not.i, label %_ZN3tbb6detail2r18governor19default_num_threadsEv.exit, label %12

12:                                               ; preds = %10
  %13 = invoke noundef i32 @_ZN3tbb6detail2r122AvailableHwConcurrencyEv()
          to label %14 unwind label %15

14:                                               ; preds = %12
  store i32 %13, ptr @_ZZN3tbb6detail2r18governor19default_num_threadsEvE11num_threads, align 4, !tbaa !102
  tail call void @__cxa_guard_release(ptr nonnull @_ZGVZN3tbb6detail2r18governor19default_num_threadsEvE11num_threads) #8
  br label %_ZN3tbb6detail2r18governor19default_num_threadsEv.exit

15:                                               ; preds = %12
  %16 = landingpad { ptr, i32 }
          cleanup
  tail call void @__cxa_guard_abort(ptr nonnull @_ZGVZN3tbb6detail2r18governor19default_num_threadsEvE11num_threads) #8
  resume { ptr, i32 } %16

_ZN3tbb6detail2r18governor19default_num_threadsEv.exit: ; preds = %7, %10, %14
  %17 = load i32, ptr @_ZZN3tbb6detail2r18governor19default_num_threadsEvE11num_threads, align 4, !tbaa !102
  br label %18

18:                                               ; preds = %3, %_ZN3tbb6detail2r18governor19default_num_threadsEv.exit
  %.1 = phi i32 [ %5, %3 ], [ %17, %_ZN3tbb6detail2r18governor19default_num_threadsEv.exit ]
  ret i32 %.1
}